target datalayout = "e-m:e-p270:32:32-p271:32:32-p272:64:64-i64:64-i128:128-f80:128-n8:16:32:64-S128"
target triple = "x86_64-pc-linux-gnu"

%struct.RString = type { %struct.RBasic, i64, %union.anon }
%struct.RBasic = type { i64, i64 }
%union.anon = type { %struct.anon }
%struct.anon = type { ptr, %union.anon.0 }
%union.anon.0 = type { i64 }
%struct.dump_arg = type { i64, i64, ptr, ptr, ptr, ptr, i64 }
%struct.anon.1 = type { [1 x i8] }
%struct.OnigEncodingTypeST = type { ptr, ptr, i32, i32, ptr, ptr, ptr, ptr, ptr, ptr, ptr, ptr, ptr, ptr, ptr, ptr, ptr, i32, i32 }

@rb_eTypeError = external global i64, align 8
@rb_cFalseClass = external global i64, align 8
@rb_cNilClass = external global i64, align 8
@rb_cTrueClass = external global i64, align 8
@rb_cInteger = external global i64, align 8
@rb_cSymbol = external global i64, align 8
@rb_cFloat = external global i64, align 8
@.str.49 = private unnamed_addr constant [6 x i8] c"class\00", align 1
@.str.50 = private unnamed_addr constant [35 x i8] c"can't dump non-ascii %s name % li\0B\00", align 1
@.str.51 = private unnamed_addr constant [30 x i8] c"can't dump anonymous %s % li\0B\00", align 1

; Function Attrs: inlinehint nounwind sspstrong willreturn memory(read) uwtable
define internal i64 @RB_FL_TEST_RAW(i64 noundef %0, i64 noundef %1) #7 {
  %3 = alloca i64, align 8
  %4 = alloca i64, align 8
  store i64 %0, ptr %3, align 8, !tbaa !7
  store i64 %1, ptr %4, align 8, !tbaa !7
  %5 = load i64, ptr %3, align 8, !tbaa !7
  %6 = inttoptr i64 %5 to ptr
  %7 = getelementptr inbounds nuw %struct.RBasic, ptr %6, i32 0, i32 0
  %8 = load i64, ptr %7, align 8, !tbaa !66
  %9 = load i64, ptr %4, align 8, !tbaa !7
  %10 = and i64 %8, %9
  ret i64 %10
}

; Function Attrs: inlinehint nounwind sspstrong willreturn memory(read) uwtable
define internal zeroext i1 @RB_FL_ANY_RAW(i64 noundef %0, i64 noundef %1) #7 {
  %3 = alloca i64, align 8
  %4 = alloca i64, align 8
  store i64 %0, ptr %3, align 8, !tbaa !7
  store i64 %1, ptr %4, align 8, !tbaa !7
  %5 = load i64, ptr %3, align 8, !tbaa !7
  %6 = load i64, ptr %4, align 8, !tbaa !7
  %7 = call i64 @RB_FL_TEST_RAW(i64 noundef %5, i64 noundef %6) #27
  %8 = icmp ne i64 %7, 0
  ret i1 %8
}

; Function Attrs: inlinehint nounwind sspstrong uwtable
define internal i32 @rb_enc_mbminlen(ptr noundef %0) #5 {
  %2 = alloca ptr, align 8
  store ptr %0, ptr %2, align 8, !tbaa !101
  %3 = load ptr, ptr %2, align 8, !tbaa !101
  %4 = getelementptr inbounds nuw %struct.OnigEncodingTypeST, ptr %3, i32 0, i32 3
  %5 = load i32, ptr %4, align 4, !tbaa !119
  ret i32 %5
}

; Function Attrs: inlinehint nounwind sspstrong willreturn memory(read, argmem: readwrite) uwtable
define internal void @rbimpl_rstring_getmem(ptr dead_on_unwind noalias writable sret(%struct.RString) align 8 %0, i64 noundef %1) #15 {
  %3 = alloca i64, align 8
  store i64 %1, ptr %3, align 8, !tbaa !7
  %4 = load i64, ptr %3, align 8, !tbaa !7
  %5 = call zeroext i1 @RB_FL_ANY_RAW(i64 noundef %4, i64 noundef 8192) #27
  br i1 %5, label %6, label %9

6:                                                ; preds = %2
  %7 = load i64, ptr %3, align 8, !tbaa !7
  %8 = inttoptr i64 %7 to ptr
  call void @llvm.memcpy.p0.p0.i64(ptr align 8 %0, ptr align 8 %8, i64 40, i1 false), !tbaa.struct !67
  br label %20

9:                                                ; preds = %2
  %10 = load i64, ptr %3, align 8, !tbaa !7
  %11 = call i64 @RSTRING_LEN(i64 noundef %10) #27
  %12 = getelementptr inbounds nuw %struct.RString, ptr %0, i32 0, i32 1
  store i64 %11, ptr %12, align 8, !tbaa !63
  %13 = load i64, ptr %3, align 8, !tbaa !7
  %14 = inttoptr i64 %13 to ptr
  %15 = getelementptr inbounds nuw %struct.RString, ptr %14, i32 0, i32 2
  %16 = getelementptr inbounds nuw %struct.anon.1, ptr %15, i32 0, i32 0
  %17 = getelementptr inbounds [1 x i8], ptr %16, i64 0, i64 0
  %18 = getelementptr inbounds nuw %struct.RString, ptr %0, i32 0, i32 2
  %19 = getelementptr inbounds nuw %struct.anon, ptr %18, i32 0, i32 0
  store ptr %17, ptr %19, align 8, !tbaa !24
  br label %20

20:                                               ; preds = %9, %6
  ret void
}

; Function Attrs: inlinehint nounwind sspstrong uwtable
define internal zeroext i1 @rb_enc_asciicompat(ptr noundef %0) #5 {
  %2 = alloca i1, align 1
  %3 = alloca ptr, align 8
  store ptr %0, ptr %3, align 8, !tbaa !101
  %4 = load ptr, ptr %3, align 8, !tbaa !101
  %5 = call i32 @rb_enc_mbminlen(ptr noundef %4)
  %6 = icmp ne i32 %5, 1
  br i1 %6, label %7, label %8

7:                                                ; preds = %1
  store i1 false, ptr %2, align 1
  br label %14

8:                                                ; preds = %1
  %9 = load ptr, ptr %3, align 8, !tbaa !101
  %10 = call i32 @rb_enc_dummy_p(ptr noundef %9) #27
  %11 = icmp ne i32 %10, 0
  br i1 %11, label %12, label %13

12:                                               ; preds = %8
  store i1 false, ptr %2, align 1
  br label %14

13:                                               ; preds = %8
  store i1 true, ptr %2, align 1
  br label %14

14:                                               ; preds = %13, %12, %7
  %15 = load i1, ptr %2, align 1
  ret i1 %15
}

; Function Attrs: inlinehint nounwind sspstrong uwtable
define internal ptr @RSTRING_PTR(i64 noundef %0) #5 {
  %2 = alloca i64, align 8
  %3 = alloca ptr, align 8
  %4 = alloca %struct.RString, align 8
  store i64 %0, ptr %2, align 8, !tbaa !7
  call void @llvm.lifetime.start.p0(i64 8, ptr %3) #23
  %5 = load i64, ptr %2, align 8, !tbaa !7
  call void @rbimpl_rstring_getmem(ptr dead_on_unwind writable sret(%struct.RString) align 8 %4, i64 noundef %5) #29
  %6 = getelementptr inbounds nuw %struct.RString, ptr %4, i32 0, i32 2
  %7 = getelementptr inbounds nuw %struct.anon, ptr %6, i32 0, i32 0
  %8 = load ptr, ptr %7, align 8, !tbaa !24
  store ptr %8, ptr %3, align 8, !tbaa !20
  %9 = load ptr, ptr %3, align 8, !tbaa !20
  call void @llvm.lifetime.end.p0(i64 8, ptr %3) #23
  ret ptr %9
}

; Function Attrs: inlinehint nounwind sspstrong willreturn memory(read) uwtable
define internal i64 @RSTRING_LEN(i64 noundef %0) #7 {
  %2 = alloca i64, align 8
  store i64 %0, ptr %2, align 8, !tbaa !7
  %3 = load i64, ptr %2, align 8, !tbaa !7
  %4 = inttoptr i64 %3 to ptr
  %5 = getelementptr inbounds nuw %struct.RString, ptr %4, i32 0, i32 1
  %6 = load i64, ptr %5, align 8, !tbaa !63
  ret i64 %6
}

; Function Attrs: inlinehint nounwind sspstrong willreturn memory(none) uwtable
define internal zeroext i1 @RB_IMMEDIATE_P(i64 noundef %0) #8 {
  %2 = alloca i64, align 8
  store i64 %0, ptr %2, align 8, !tbaa !7
  %3 = load i64, ptr %2, align 8, !tbaa !7
  %4 = and i64 %3, 7
  %5 = icmp ne i64 %4, 0
  ret i1 %5
}

; Function Attrs: nounwind sspstrong uwtable
define internal i64 @must_not_be_anonymous(ptr noundef %0, i64 noundef %1) #0 {
  %3 = alloca ptr, align 8
  %4 = alloca i64, align 8
  %5 = alloca ptr, align 8
  store ptr %0, ptr %3, align 8, !tbaa !20
  store i64 %1, ptr %4, align 8, !tbaa !7
  call void @llvm.lifetime.start.p0(i64 8, ptr %5) #23
  %6 = load i64, ptr %4, align 8, !tbaa !7
  %7 = call ptr @RSTRING_PTR(i64 noundef %6)
  store ptr %7, ptr %5, align 8, !tbaa !20
  %8 = load i64, ptr %4, align 8, !tbaa !7
  %9 = call ptr @rb_enc_get(i64 noundef %8)
  %10 = call zeroext i1 @rb_enc_asciicompat(ptr noundef %9)
  br i1 %10, label %15, label %11

11:                                               ; preds = %2
  %12 = load i64, ptr @rb_eTypeError, align 8, !tbaa !7
  %13 = load ptr, ptr %3, align 8, !tbaa !20
  %14 = load i64, ptr %4, align 8, !tbaa !7
  call void (i64, ptr, ...) @rb_raise(i64 noundef %12, ptr noundef @.str.50, ptr noundef %13, i64 noundef %14) #24
  unreachable

15:                                               ; preds = %2
  %16 = load ptr, ptr %5, align 8, !tbaa !20
  %17 = getelementptr i8, ptr %16, i64 0
  %18 = load i8, ptr %17, align 1, !tbaa !24
  %19 = sext i8 %18 to i32
  %20 = icmp eq i32 %19, 35
  br i1 %20, label %21, label %25

21:                                               ; preds = %15
  %22 = load i64, ptr @rb_eTypeError, align 8, !tbaa !7
  %23 = load ptr, ptr %3, align 8, !tbaa !20
  %24 = load i64, ptr %4, align 8, !tbaa !7
  call void (i64, ptr, ...) @rb_raise(i64 noundef %22, ptr noundef @.str.51, ptr noundef %23, i64 noundef %24) #24
  unreachable

25:                                               ; preds = %15
  %26 = load i64, ptr %4, align 8, !tbaa !7
  call void @llvm.lifetime.end.p0(i64 8, ptr %5) #23
  ret i64 %26
}

; Function Attrs: nounwind sspstrong uwtable
define internal void @w_nbyte(ptr noundef %0, i64 noundef %1, ptr noundef %2) #0 {
  %4 = alloca ptr, align 8
  %5 = alloca i64, align 8
  %6 = alloca ptr, align 8
  %7 = alloca i64, align 8
  store ptr %0, ptr %4, align 8, !tbaa !20
  store i64 %1, ptr %5, align 8, !tbaa !7
  store ptr %2, ptr %6, align 8, !tbaa !39
  call void @llvm.lifetime.start.p0(i64 8, ptr %7) #23
  %8 = load ptr, ptr %6, align 8, !tbaa !39
  %9 = getelementptr inbounds nuw %struct.dump_arg, ptr %8, i32 0, i32 0
  %10 = load i64, ptr %9, align 8, !tbaa !48
  store i64 %10, ptr %7, align 8, !tbaa !7
  %11 = load i64, ptr %7, align 8, !tbaa !7
  %12 = load ptr, ptr %4, align 8, !tbaa !20
  %13 = load i64, ptr %5, align 8, !tbaa !7
  %14 = call i64 @rb_str_cat(i64 noundef %11, ptr noundef %12, i64 noundef %13)
  %15 = load ptr, ptr %6, align 8, !tbaa !39
  %16 = getelementptr inbounds nuw %struct.dump_arg, ptr %15, i32 0, i32 1
  %17 = load i64, ptr %16, align 8, !tbaa !41
  %18 = icmp ne i64 %17, 0
  br i1 %18, label %19, label %31

19:                                               ; preds = %3
  %20 = load i64, ptr %7, align 8, !tbaa !7
  %21 = call i64 @RSTRING_LEN(i64 noundef %20) #27
  %22 = icmp sge i64 %21, 8192
  br i1 %22, label %23, label %31

23:                                               ; preds = %19
  %24 = load ptr, ptr %6, align 8, !tbaa !39
  %25 = getelementptr inbounds nuw %struct.dump_arg, ptr %24, i32 0, i32 1
  %26 = load i64, ptr %25, align 8, !tbaa !41
  %27 = load i64, ptr %7, align 8, !tbaa !7
  %28 = call i64 @rb_io_write(i64 noundef %26, i64 noundef %27)
  %29 = load i64, ptr %7, align 8, !tbaa !7
  %30 = call i64 @rb_str_resize(i64 noundef %29, i64 noundef 0)
  br label %31

31:                                               ; preds = %23, %19, %3
  call void @llvm.lifetime.end.p0(i64 8, ptr %7) #23
  ret void
}

; Function Attrs: inlinehint nounwind sspstrong willreturn memory(none) uwtable
define internal zeroext i1 @RB_FLONUM_P(i64 noundef %0) #8 {
  %2 = alloca i64, align 8
  store i64 %0, ptr %2, align 8, !tbaa !7
  %3 = load i64, ptr %2, align 8, !tbaa !7
  %4 = and i64 %3, 3
  %5 = icmp eq i64 %4, 2
  ret i1 %5
}

; Function Attrs: inlinehint nounwind sspstrong willreturn memory(none) uwtable
define internal zeroext i1 @RB_STATIC_SYM_P(i64 noundef %0) #8 {
  %2 = alloca i64, align 8
  %3 = alloca i64, align 8
  store i64 %0, ptr %2, align 8, !tbaa !7
  call void @llvm.lifetime.start.p0(i64 8, ptr %3) #23
  store i64 255, ptr %3, align 8, !tbaa !7
  %4 = load i64, ptr %2, align 8, !tbaa !7
  %5 = and i64 %4, 255
  %6 = icmp eq i64 %5, 12
  call void @llvm.lifetime.end.p0(i64 8, ptr %3) #23
  ret i1 %6
}

; Function Attrs: inlinehint nounwind sspstrong willreturn memory(none) uwtable
define internal zeroext i1 @RB_FIXNUM_P(i64 noundef %0) #8 {
  %2 = alloca i64, align 8
  store i64 %0, ptr %2, align 8, !tbaa !7
  %3 = load i64, ptr %2, align 8, !tbaa !7
  %4 = and i64 %3, 1
  %5 = icmp ne i64 %4, 0
  ret i1 %5
}

; Function Attrs: inlinehint nounwind sspstrong willreturn memory(read) uwtable
define internal i64 @RBASIC_CLASS(i64 noundef %0) #7 {
  %2 = alloca i64, align 8
  store i64 %0, ptr %2, align 8, !tbaa !7
  %3 = load i64, ptr %2, align 8, !tbaa !7
  %4 = inttoptr i64 %3 to ptr
  %5 = getelementptr inbounds nuw %struct.RBasic, ptr %4, i32 0, i32 1
  %6 = load i64, ptr %5, align 8, !tbaa !82
  ret i64 %6
}

; Function Attrs: inlinehint nounwind sspstrong willreturn memory(none) uwtable
define internal zeroext i1 @RB_SPECIAL_CONST_P(i64 noundef %0) #8 {
  %2 = alloca i64, align 8
  store i64 %0, ptr %2, align 8, !tbaa !7
  %3 = load i64, ptr %2, align 8, !tbaa !7
  %4 = icmp eq i64 %3, 0
  br i1 %4, label %8, label %5

5:                                                ; preds = %1
  %6 = load i64, ptr %2, align 8, !tbaa !7
  %7 = call zeroext i1 @RB_IMMEDIATE_P(i64 noundef %6) #26
  br label %8

8:                                                ; preds = %5, %1
  %9 = phi i1 [ true, %1 ], [ %7, %5 ]
  ret i1 %9
}

; Function Attrs: nounwind sspstrong uwtable
define internal void @w_unique(i64 noundef %0, ptr noundef %1) #0 {
  %3 = alloca i64, align 8
  %4 = alloca ptr, align 8
  store i64 %0, ptr %3, align 8, !tbaa !7
  store ptr %1, ptr %4, align 8, !tbaa !39
  %5 = load i64, ptr %3, align 8, !tbaa !7
  %6 = call i64 @must_not_be_anonymous(ptr noundef @.str.49, i64 noundef %5)
  %7 = load i64, ptr %3, align 8, !tbaa !7
  %8 = call i64 @rb_str_intern(i64 noundef %7)
  %9 = load ptr, ptr %4, align 8, !tbaa !39
  call void @w_symbol(i64 noundef %8, ptr noundef %9)
  ret void
}

; Function Attrs: nounwind sspstrong uwtable
define internal void @w_byte(i8 noundef signext %0, ptr noundef %1) #0 {
  %3 = alloca i8, align 1
  %4 = alloca ptr, align 8
  store i8 %0, ptr %3, align 1, !tbaa !24
  store ptr %1, ptr %4, align 8, !tbaa !39
  %5 = load ptr, ptr %4, align 8, !tbaa !39
  call void @w_nbyte(ptr noundef %3, i64 noundef 1, ptr noundef %5)
  ret void
}

; Function Attrs: inlinehint nounwind sspstrong willreturn memory(read) uwtable
define internal i64 @rb_class_of(i64 noundef %0) #7 {
  %2 = alloca i64, align 8
  %3 = alloca i64, align 8
  store i64 %0, ptr %3, align 8, !tbaa !7
  %4 = load i64, ptr %3, align 8, !tbaa !7
  %5 = call zeroext i1 @RB_SPECIAL_CONST_P(i64 noundef %4) #26
  br i1 %5, label %9, label %6

6:                                                ; preds = %1
  %7 = load i64, ptr %3, align 8, !tbaa !7
  %8 = call i64 @RBASIC_CLASS(i64 noundef %7) #27
  store i64 %8, ptr %2, align 8
  br label %46

9:                                                ; preds = %1
  %10 = load i64, ptr %3, align 8, !tbaa !7
  %11 = icmp eq i64 %10, 0
  br i1 %11, label %12, label %14

12:                                               ; preds = %9
  %13 = load i64, ptr @rb_cFalseClass, align 8, !tbaa !7
  store i64 %13, ptr %2, align 8
  br label %46

14:                                               ; preds = %9
  %15 = load i64, ptr %3, align 8, !tbaa !7
  %16 = icmp eq i64 %15, 4
  br i1 %16, label %17, label %19

17:                                               ; preds = %14
  %18 = load i64, ptr @rb_cNilClass, align 8, !tbaa !7
  store i64 %18, ptr %2, align 8
  br label %46

19:                                               ; preds = %14
  %20 = load i64, ptr %3, align 8, !tbaa !7
  %21 = icmp eq i64 %20, 20
  br i1 %21, label %22, label %24

22:                                               ; preds = %19
  %23 = load i64, ptr @rb_cTrueClass, align 8, !tbaa !7
  store i64 %23, ptr %2, align 8
  br label %46

24:                                               ; preds = %19
  %25 = load i64, ptr %3, align 8, !tbaa !7
  %26 = call zeroext i1 @RB_FIXNUM_P(i64 noundef %25) #26
  br i1 %26, label %27, label %29

27:                                               ; preds = %24
  %28 = load i64, ptr @rb_cInteger, align 8, !tbaa !7
  store i64 %28, ptr %2, align 8
  br label %46

29:                                               ; preds = %24
  %30 = load i64, ptr %3, align 8, !tbaa !7
  %31 = call zeroext i1 @RB_STATIC_SYM_P(i64 noundef %30) #26
  br i1 %31, label %32, label %34

32:                                               ; preds = %29
  %33 = load i64, ptr @rb_cSymbol, align 8, !tbaa !7
  store i64 %33, ptr %2, align 8
  br label %46

34:                                               ; preds = %29
  %35 = load i64, ptr %3, align 8, !tbaa !7
  %36 = call zeroext i1 @RB_FLONUM_P(i64 noundef %35) #26
  br i1 %36, label %37, label %39

37:                                               ; preds = %34
  %38 = load i64, ptr @rb_cFloat, align 8, !tbaa !7
  store i64 %38, ptr %2, align 8
  br label %46

39:                                               ; preds = %34
  br label %40

40:                                               ; preds = %39
  br label %41

41:                                               ; preds = %40
  br label %42

42:                                               ; preds = %41
  br label %43

43:                                               ; preds = %42
  br label %44

44:                                               ; preds = %43
  br label %45

45:                                               ; preds = %44
  unreachable

46:                                               ; preds = %37, %32, %27, %22, %17, %12, %6
  %47 = load i64, ptr %2, align 8
  ret i64 %47
}

; Function Attrs: nounwind sspstrong uwtable
define internal void @w_uclass(i64 noundef %0, i64 noundef %1, ptr noundef %2) #0 {
  %4 = alloca i64, align 8
  %5 = alloca i64, align 8
  %6 = alloca ptr, align 8
  %7 = alloca i64, align 8
  store i64 %0, ptr %4, align 8, !tbaa !7
  store i64 %1, ptr %5, align 8, !tbaa !7
  store ptr %2, ptr %6, align 8, !tbaa !39
  call void @llvm.lifetime.start.p0(i64 8, ptr %7) #23
  %8 = load i64, ptr %4, align 8, !tbaa !7
  %9 = call i64 @rb_class_of(i64 noundef %8) #27
  store i64 %9, ptr %7, align 8, !tbaa !7
  %10 = load i64, ptr %7, align 8, !tbaa !7
  %11 = load ptr, ptr %6, align 8, !tbaa !39
  call void @w_extended(i64 noundef %10, ptr noundef %11, i32 noundef 1)
  %12 = load i64, ptr %7, align 8, !tbaa !7
  %13 = call i64 @rb_class_real(i64 noundef %12) #27
  store i64 %13, ptr %7, align 8, !tbaa !7
  %14 = load i64, ptr %7, align 8, !tbaa !7
  %15 = load i64, ptr %5, align 8, !tbaa !7
  %16 = icmp ne i64 %14, %15
  br i1 %16, label %17, label %22

17:                                               ; preds = %3
  %18 = load ptr, ptr %6, align 8, !tbaa !39
  call void @w_byte(i8 noundef signext 67, ptr noundef %18)
  %19 = load i64, ptr %7, align 8, !tbaa !7
  %20 = call i64 @class2path(i64 noundef %19)
  %21 = load ptr, ptr %6, align 8, !tbaa !39
  call void @w_unique(i64 noundef %20, ptr noundef %21)
  br label %22

22:                                               ; preds = %17, %3
  call void @llvm.lifetime.end.p0(i64 8, ptr %7) #23
  ret void
}