; Function Attrs: nounwind sspstrong uwtable
define internal fastcc void @w_uclass(i64 noundef %0, i64 noundef %1, ptr noundef %2) unnamed_addr #0 {
  %4 = alloca i8, align 1
  %5 = icmp eq i64 %0, 0
  %6 = and i64 %0, 7
  %7 = icmp ne i64 %6, 0
  %8 = or i1 %5, %7
  br i1 %8, label %12, label %9

9:                                                ; preds = %3
  %10 = inttoptr i64 %0 to ptr
  %11 = getelementptr inbounds nuw i8, ptr %10, i64 8
  br label %rb_class_of.exit

12:                                               ; preds = %3
  switch i64 %0, label %15 [
    i64 0, label %rb_class_of.exit
    i64 4, label %13
    i64 20, label %14
  ]

13:                                               ; preds = %12
  br label %rb_class_of.exit

14:                                               ; preds = %12
  br label %rb_class_of.exit

15:                                               ; preds = %12
  %16 = and i64 %0, 1
  %.not.i = icmp eq i64 %16, 0
  br i1 %.not.i, label %17, label %rb_class_of.exit

17:                                               ; preds = %15
  %18 = and i64 %0, 254
  %19 = icmp eq i64 %18, 12
  %spec.select.i = select i1 %19, ptr @rb_cSymbol, ptr @rb_cFloat
  br label %rb_class_of.exit

rb_class_of.exit:                                 ; preds = %9, %12, %13, %14, %15, %17
  %.0.in.i = phi ptr [ @rb_cNilClass, %13 ], [ @rb_cTrueClass, %14 ], [ %11, %9 ], [ @rb_cFalseClass, %12 ], [ @rb_cInteger, %15 ], [ %spec.select.i, %17 ]
  %.0.i = load i64, ptr %.0.in.i, align 8, !tbaa !7
  tail call fastcc void @w_extended(i64 noundef %.0.i, ptr noundef %2, i32 noundef 1)
  %20 = tail call i64 @rb_class_real(i64 noundef %.0.i) #27
  %.not = icmp eq i64 %20, %1
  br i1 %.not, label %50, label %21

21:                                               ; preds = %rb_class_of.exit
  call void @llvm.lifetime.start.p0(i64 1, ptr nonnull %4)
  store i8 67, ptr %4, align 1, !tbaa !17
  %22 = load i64, ptr %2, align 8, !tbaa !40
  %23 = call i64 @rb_str_cat(i64 noundef %22, ptr noundef nonnull %4, i64 noundef 1) #22
  %24 = getelementptr inbounds nuw i8, ptr %2, i64 8
  %25 = load i64, ptr %24, align 8, !tbaa !36
  %.not.i.i = icmp eq i64 %25, 0
  br i1 %.not.i.i, label %w_byte.exit, label %26

26:                                               ; preds = %21
  %27 = inttoptr i64 %22 to ptr
  %28 = getelementptr inbounds nuw i8, ptr %27, i64 16
  %29 = load i64, ptr %28, align 8, !tbaa !41
  %30 = icmp sgt i64 %29, 8191
  br i1 %30, label %31, label %w_byte.exit

31:                                               ; preds = %26
  %32 = call i64 @rb_io_write(i64 noundef %25, i64 noundef %22) #22
  %33 = call i64 @rb_str_resize(i64 noundef %22, i64 noundef 0) #22
  br label %w_byte.exit

w_byte.exit:                                      ; preds = %21, %26, %31
  call void @llvm.lifetime.end.p0(i64 1, ptr nonnull %4)
  %34 = call fastcc i64 @class2path(i64 noundef %20)
  %35 = inttoptr i64 %34 to ptr
  %36 = load i64, ptr %35, align 8, !tbaa !56, !noalias !123
  %37 = and i64 %36, 8192
  %.not.i.i.i = icmp eq i64 %37, 0
  %38 = getelementptr inbounds nuw i8, ptr %35, i64 24
  br i1 %.not.i.i.i, label %RSTRING_PTR.exit.i, label %39

39:                                               ; preds = %w_byte.exit
  %.sroa.2.0.copyload.i.i = load ptr, ptr %38, align 8
  br label %RSTRING_PTR.exit.i

RSTRING_PTR.exit.i:                               ; preds = %39, %w_byte.exit
  %.sroa.2.0.i.i = phi ptr [ %.sroa.2.0.copyload.i.i, %39 ], [ %38, %w_byte.exit ]
  %40 = call ptr @rb_enc_get(i64 noundef %34) #22
  %41 = getelementptr i8, ptr %40, i64 20
  %.val.i.i = load i32, ptr %41, align 4, !tbaa !117
  %.not.i.i8 = icmp eq i32 %.val.i.i, 1
  br i1 %.not.i.i8, label %rb_enc_asciicompat.exit.i, label %rb_enc_asciicompat.exit.thread.i

rb_enc_asciicompat.exit.i:                        ; preds = %RSTRING_PTR.exit.i
  %42 = call i32 @rb_enc_dummy_p(ptr noundef nonnull readonly %40) #27
  %.not3.i.i = icmp eq i32 %42, 0
  br i1 %.not3.i.i, label %44, label %rb_enc_asciicompat.exit.thread.i

rb_enc_asciicompat.exit.thread.i:                 ; preds = %rb_enc_asciicompat.exit.i, %RSTRING_PTR.exit.i
  %43 = load i64, ptr @rb_eTypeError, align 8, !tbaa !7
  call void (i64, ptr, ...) @rb_raise(i64 noundef %43, ptr noundef nonnull @.str.50, ptr noundef nonnull @.str.49, i64 noundef %34) #23
  unreachable

44:                                               ; preds = %rb_enc_asciicompat.exit.i
  %45 = load i8, ptr %.sroa.2.0.i.i, align 1, !tbaa !17
  %46 = icmp eq i8 %45, 35
  br i1 %46, label %47, label %must_not_be_anonymous.exit

47:                                               ; preds = %44
  %48 = load i64, ptr @rb_eTypeError, align 8, !tbaa !7
  call void (i64, ptr, ...) @rb_raise(i64 noundef %48, ptr noundef nonnull @.str.51, ptr noundef nonnull @.str.49, i64 noundef %34) #23
  unreachable

must_not_be_anonymous.exit:                       ; preds = %44
  %49 = call i64 @rb_str_intern(i64 noundef %34) #22
  call fastcc void @w_symbol(i64 noundef %49, ptr noundef nonnull %2)
  br label %50

50:                                               ; preds = %must_not_be_anonymous.exit, %rb_class_of.exit
  ret void
}